(dp0
VWar Brides
p1
(dp2
S'songID'
p3
(lp4
S'27394716'
p5
asS'venue'
p6
(dp7
Vcity
p8
VChicago
p9
sVname
p10
VThe Abbey
p11
sVurl
p12
Vhttp://www.bandsintown.com/venue/693435
p13
sVcountry
p14
VUnited States
p15
sVregion
p16
VIL
p17
sVlongitude
p18
F-87.713610000000003
sVlatitude
p19
F41.950324999999999
sVid
p20
I693435
ssS'ticket_url'
p21
Vhttp://www.bandsintown.com/event/4260102/buy_tickets
p22
sS'datetime'
p23
V2011-06-30T20:30:00
p24
sS'time'
p25
V20:30:00
p26
sS'date'
p27
V2011-06-30
p28
ssVArcheology
p29
(dp30
g3
(lp31
sg6
(dp32
Vcity
p33
VChicago
p34
sVname
p35
VDouble Door
p36
sVurl
p37
Vhttp://www.bandsintown.com/venue/378032
p38
sVcountry
p39
VUnited States
p40
sVregion
p41
VIL
p42
sVlongitude
p43
F-87.676912000000002
sVlatitude
p44
F41.909877999999999
sVid
p45
I378032
ssg21
Vhttp://www.bandsintown.com/event/4368185/buy_tickets
p46
sg23
V2011-06-29T20:00:00
p47
sg25
V20:00:00
p48
sg27
V2011-06-29
p49
ssVUndadog Records
p50
(dp51
g3
(lp52
sg6
(dp53
Vcity
p54
VChicago
p55
sVname
p56
VReggies Rock Club
p57
sVurl
p58
Vhttp://www.bandsintown.com/venue/1058601
p59
sVcountry
p60
VUnited States
p61
sVregion
p62
VIL
p63
sVlongitude
p64
F-87.626936000000001
sVlatitude
p65
F41.854062999999996
sVid
p66
I1058601
ssg21
Vhttp://www.bandsintown.com/event/4380029/buy_tickets
p67
sg23
V2011-06-29T20:00:00
p68
sg25
V20:00:00
p69
sg27
V2011-06-29
p70
ssVI.Devise
p71
(dp72
g3
(lp73
sg6
g53
sg21
g67
sg23
g68
sg25
V20:00:00
p74
sg27
V2011-06-29
p75
ssVThis Is Cinema
p76
(dp77
g3
(lp78
sg6
(dp79
Vcity
p80
VChicago
p81
sVname
p82
VThe Hideout
p83
sVurl
p84
Vhttp://www.bandsintown.com/venue/1085526
p85
sVcountry
p86
VUnited States
p87
sVregion
p88
VIL
p89
sVlongitude
p90
F-87.662273999999996
sVlatitude
p91
F41.913871999999998
sVid
p92
I1085526
ssg21
Vhttp://www.bandsintown.com/event/4382358/buy_tickets
p93
sg23
V2011-06-30T21:00:00
p94
sg25
V21:00:00
p95
sg27
V2011-06-30
p96
ssVKelley McRae
p97
(dp98
g3
(lp99
S'24468340'
p100
aS'24468308'
p101
aS'24468305'
p102
aS'24468337'
p103
aS'24468327'
p104
aS'23704776'
p105
aS'24468333'
p106
aS'24468284'
p107
aS'24468293'
p108
aS'24468319'
p109
aS'24468287'
p110
aS'2742711'
p111
aS'23675995'
p112
asg6
(dp113
Vcity
p114
VChicago
p115
sVname
p116
VMartyrs'
p117
sVurl
p118
Vhttp://www.bandsintown.com/venue/687419
p119
sVcountry
p120
VUnited States
p121
sVregion
p122
VIL
p123
sVlongitude
p124
F-87.676897999999994
sVlatitude
p125
F41.951808999999997
sVid
p126
I687419
ssg21
Vhttp://www.bandsintown.com/event/4349117/buy_tickets
p127
sg23
V2011-06-30T21:00:00
p128
sg25
V21:00:00
p129
sg27
V2011-06-30
p130
ssVIstvan
p131
(dp132
g3
(lp133
sg6
g7
sg21
g22
sg23
g24
sg25
V20:30:00
p134
sg27
V2011-06-30
p135
ssVCharlie Glitch
p136
(dp137
g3
(lp138
sg6
(dp139
Vcity
p140
VChicago
p141
sVname
p142
VReggies Rock Club
p143
sVurl
p144
Vhttp://www.bandsintown.com/venue/1058601
p145
sVcountry
p146
VUnited States
p147
sVregion
p148
VIL
p149
sVlongitude
p150
F-87.626936000000001
sVlatitude
p151
F41.854062999999996
sVid
p152
I1058601
ssg21
Vhttp://www.bandsintown.com/event/4415565/buy_tickets
p153
sg23
V2011-06-30T20:00:00
p154
sg25
V20:00:00
p155
sg27
V2011-06-30
p156
ssV2011 Essence Music Festival
p157
(dp158
g3
(lp159
sg6
(dp160
Vcity
p161
VChicago
p162
sVname
p163
VJackson Family Tours
p164
sVurl
p165
Vhttp://www.bandsintown.com/venue/1055562
p166
sVcountry
p167
VUnited States
p168
sVregion
p169
VIL
p170
sVlongitude
p171
F-87.667787000000004
sVlatitude
p172
F41.764291999999998
sVid
p173
I1055562
ssg21
Vhttp://www.bandsintown.com/event/4238180/buy_tickets
p174
sg23
V2011-06-29T20:00:00
p175
sg25
V20:00:00
p176
sg27
V2011-06-29
p177
ssVSet III
p178
(dp179
g3
(lp180
sg6
(dp181
Vcity
p182
VChicago
p183
sVname
p184
VThe Hideout
p185
sVurl
p186
Vhttp://www.bandsintown.com/venue/1085526
p187
sVcountry
p188
VUnited States
p189
sVregion
p190
VIL
p191
sVlongitude
p192
F-87.662273999999996
sVlatitude
p193
F41.913871999999998
sVid
p194
I1085526
ssg21
Vhttp://www.bandsintown.com/event/4396193/buy_tickets
p195
sg23
V2011-06-29T21:30:00
p196
sg25
V21:30:00
p197
sg27
V2011-06-29
p198
ssVThe Static Jacks
p199
(dp200
g3
(lp201
S'24802981'
p202
aS'30439965'
p203
aS'25001147'
p204
aS'27042690'
p205
aS'21447880'
p206
asg6
(dp207
Vcity
p208
VChicago
p209
sVname
p210
VSchubas Tavern
p211
sVurl
p212
Vhttp://www.bandsintown.com/venue/11098
p213
sVcountry
p214
VUnited States
p215
sVregion
p216
VIL
p217
sVlongitude
p218
F-87.663651000000002
sVlatitude
p219
F41.939656999999997
sVid
p220
I11098
ssg21
Vhttp://www.bandsintown.com/event/4303232/buy_tickets
p221
sg23
V2011-06-30T20:00:00
p222
sg25
V20:00:00
p223
sg27
V2011-06-30
p224
ssVCasey Veggies
p225
(dp226
g3
(lp227
S'23666260'
p228
aS'23666272'
p229
aS'23666227'
p230
aS'29468904'
p231
aS'30528227'
p232
aS'30313187'
p233
aS'30528177'
p234
aS'30528164'
p235
aS'30528217'
p236
aS'30528243'
p237
aS'30528197'
p238
aS'30528235'
p239
aS'30528206'
p240
asg6
(dp241
Vcity
p242
VChicago
p243
sVname
p244
VReggies Rockhouse
p245
sVurl
p246
Vhttp://www.bandsintown.com/venue/844802
p247
sVcountry
p248
VUnited States
p249
sVregion
p250
VIL
p251
sVlongitude
p252
F-87.650000000000006
sVlatitude
p253
F41.850000000000001
sVid
p254
I844802
ssg21
Vhttp://www.bandsintown.com/event/4414963/buy_tickets
p255
sg23
V2011-06-30T19:00:00
p256
sg25
V19:00:00
p257
sg27
V2011-06-30
p258
ssVDeon Cole
p259
(dp260
g3
(lp261
sg6
(dp262
Vcity
p263
VChicago
p264
sVname
p265
VCongress Theater
p266
sVurl
p267
Vhttp://www.bandsintown.com/venue/377887
p268
sVcountry
p269
VUnited States
p270
sVregion
p271
VIL
p272
sVlongitude
p273
F-87.692318
sVlatitude
p274
F41.919995999999998
sVid
p275
I377887
ssg21
Vhttp://www.bandsintown.com/event/4327150/buy_tickets
p276
sg23
V2011-06-30T20:00:00
p277
sg25
V20:00:00
p278
sg27
V2011-06-30
p279
ssVThe Mutts
p280
(dp281
g3
(lp282
sg6
g79
sg21
g93
sg23
g94
sg25
V21:00:00
p283
sg27
V2011-06-30
p284
ssVLas Guitarras De Espana
p285
(dp286
g3
(lp287
sg6
(dp288
Vcity
p289
VChicago
p290
sVname
p291
VMayne Stage
p292
sVurl
p293
Vhttp://www.bandsintown.com/venue/906764
p294
sVcountry
p295
VUnited States
p296
sVregion
p297
VIL
p298
sVlongitude
p299
F-87.664804000000004
sVlatitude
p300
F42.008069999999996
sVid
p301
I906764
ssg21
Vhttp://www.bandsintown.com/event/4079576/buy_tickets
p302
sg23
V2011-06-30T19:30:00
p303
sg25
V19:30:00
p304
sg27
V2011-06-30
p305
ssVGoran Ivanovic Guitar Duo
p306
(dp307
g3
(lp308
sg6
g288
sg21
g302
sg23
g303
sg25
V19:30:00
p309
sg27
V2011-06-30
p310
ssVThe Personnel
p311
(dp312
g3
(lp313
sg6
(dp314
Vcity
p315
VChicago
p316
sVname
p317
VOld Town Social
p318
sVurl
p319
Vhttp://www.bandsintown.com/venue/793594
p320
sVcountry
p321
VUnited States
p322
sVregion
p323
VIL
p324
sVlongitude
p325
F-87.632043999999993
sVlatitude
p326
F41.911169999999998
sVid
p327
I793594
ssg21
Vhttp://www.bandsintown.com/event/4392549/buy_tickets
p328
sg23
V2011-06-29T21:00:00
p329
sg25
V21:00:00
p330
sg27
V2011-06-29
p331
ssVMishka
p332
(dp333
g3
(lp334
S'22485598'
p335
aS'22485590'
p336
aS'22485596'
p337
aS'22485589'
p338
aS'22485597'
p339
aS'22485595'
p340
aS'22485593'
p341
aS'22485591'
p342
aS'25981810'
p343
aS'22485599'
p344
aS'25981824'
p345
aS'26892388'
p346
aS'23225740'
p347
aS'23749815'
p348
aS'25281028'
p349
asg6
(dp350
Vcity
p351
VChicago
p352
sVname
p353
VSchubas Tavern
p354
sVurl
p355
Vhttp://www.bandsintown.com/venue/11098
p356
sVcountry
p357
VUnited States
p358
sVregion
p359
VIL
p360
sVlongitude
p361
F-87.663651000000002
sVlatitude
p362
F41.939656999999997
sVid
p363
I11098
ssg21
Vhttp://www.bandsintown.com/event/4325116/buy_tickets
p364
sg23
V2011-06-29T19:30:00
p365
sg25
V19:30:00
p366
sg27
V2011-06-29
p367
ssVLaurie Kilmartin
p368
(dp369
g3
(lp370
sg6
g262
sg21
g276
sg23
g277
sg25
V20:00:00
p371
sg27
V2011-06-30
p372
ssVPowered by Ill Roots
p373
(dp374
g3
(lp375
sg6
g139
sg21
g153
sg23
g154
sg25
V20:00:00
p376
sg27
V2011-06-30
p377
ssVDJ Intel
p378
(dp379
g3
(lp380
sg6
(dp381
Vcity
p382
VChicago
p383
sVname
p384
VButterfly Social Club
p385
sVurl
p386
Vhttp://www.bandsintown.com/venue/701427
p387
sVcountry
p388
VUnited States
p389
sVregion
p390
VIL
p391
sVlongitude
p392
F-87.646590000000003
sVlatitude
p393
F41.891311000000002
sVid
p394
I701427
ssg21
Vhttp://www.bandsintown.com/event/4366277/buy_tickets
p395
sg23
V2011-06-30T19:00:00
p396
sg25
V19:00:00
p397
sg27
V2011-06-30
p398
ssVCasino Madrid
p399
(dp400
g3
(lp401
sg6
(dp402
Vcity
p403
VChicago
p404
sVname
p405
VRock Room at Penny Lane Pub w/ Scarlett O'hara, We Are Defiance
p406
sVurl
p407
Vhttp://www.bandsintown.com/venue/1119453
p408
sVcountry
p409
VUnited States
p410
sVregion
p411
VIL
p412
sVlongitude
p413
F-87.650000000000006
sVlatitude
p414
F41.850000000000001
sVid
p415
I1119453
ssg21
Vhttp://www.bandsintown.com/event/4331109/buy_tickets
p416
sg23
V2011-06-29T19:00:00
p417
sg25
V19:00:00
p418
sg27
V2011-06-29
p419
ssVOld Painless
p420
(dp421
g3
(lp422
sg6
g7
sg21
g22
sg23
g24
sg25
V20:30:00
p423
sg27
V2011-06-30
p424
ssVJimmy Burns Blues Band
p425
(dp426
g3
(lp427
sg6
(dp428
Vcity
p429
VChicago
p430
sVname
p431
VKingston Mines
p432
sVurl
p433
Vhttp://www.bandsintown.com/venue/31972
p434
sVcountry
p435
VUnited States
p436
sVregion
p437
VIL
p438
sVlongitude
p439
F-87.649045999999998
sVlatitude
p440
F41.928452999999998
sVid
p441
I31972
ssg21
Vhttp://www.bandsintown.com/event/4067772/buy_tickets
p442
sg23
V2011-06-29T20:00:00
p443
sg25
V20:00:00
p444
sg27
V2011-06-29
p445
ssV8pm Acoustic Set
p446
(dp447
g3
(lp448
sg6
(dp449
Vcity
p450
VChicago
p451
sVname
p452
VKingston Mines
p453
sVurl
p454
Vhttp://www.bandsintown.com/venue/31972
p455
sVcountry
p456
VUnited States
p457
sVregion
p458
VIL
p459
sVlongitude
p460
F-87.649045999999998
sVlatitude
p461
F41.928452999999998
sVid
p462
I31972
ssg21
Vhttp://www.bandsintown.com/event/4067773/buy_tickets
p463
sg23
V2011-06-30T20:00:00
p464
sg25
V20:00:00
p465
sg27
V2011-06-30
p466
ssVWe Love Soul Sessions
p467
(dp468
g3
(lp469
sg6
(dp470
Vcity
p471
VChicago
p472
sVname
p473
VDarkroom
p474
sVurl
p475
Vhttp://www.bandsintown.com/venue/23309
p476
sVcountry
p477
VUnited States
p478
sVregion
p479
VIL
p480
sVlongitude
p481
F-87.650000000000006
sVlatitude
p482
F41.850000000000001
sVid
p483
I23309
ssg21
Vhttp://www.bandsintown.com/event/4411186/buy_tickets
p484
sg23
V2011-06-30T21:00:00
p485
sg25
V21:00:00
p486
sg27
V2011-06-30
p487
ssVThe Andreas Kapsalis
p488
(dp489
g3
(lp490
S'28040541'
p491
asg6
g288
sg21
g302
sg23
g303
sg25
V19:30:00
p492
sg27
V2011-06-30
p493
ssVSpare Parts
p494
(dp495
g3
(lp496
S'26575087'
p497
aS'26574995'
p498
aS'26575041'
p499
aS'26575121'
p500
aS'24707939'
p501
asg6
(dp502
Vcity
p503
VChicago
p504
sVname
p505
ValiveOne
p506
sVurl
p507
Vhttp://www.bandsintown.com/venue/1079718
p508
sVcountry
p509
VUnited States
p510
sVregion
p511
VIL
p512
sVlongitude
p513
F-87.648795000000007
sVlatitude
p514
F41.930936000000003
sVid
p515
I1079718
ssg21
Vhttp://www.bandsintown.com/event/4305506/buy_tickets
p516
sg23
V2011-06-30T22:00:00
p517
sg25
V22:00:00
p518
sg27
V2011-06-30
p519
ssVCojack
p520
(dp521
g3
(lp522
sg6
g53
sg21
g67
sg23
g68
sg25
V20:00:00
p523
sg27
V2011-06-29
p524
ssVBen Harper
p525
(dp526
g3
(lp527
sg6
(dp528
Vcity
p529
VChicago
p530
sVname
p531
VVic Theatre
p532
sVurl
p533
Vhttp://www.bandsintown.com/venue/3807
p534
sVcountry
p535
VUnited States
p536
sVregion
p537
VIL
p538
sVlongitude
p539
F-87.653893999999994
sVlatitude
p540
F41.93918
sVid
p541
I3807
ssg21
Vhttp://www.bandsintown.com/event/4231670/buy_tickets
p542
sg23
V2011-06-30T18:30:00
p543
sg25
V18:30:00
p544
sg27
V2011-06-30
p545
ssVSummer Cookout Tour
p546
(dp547
g3
(lp548
sg6
g241
sg21
g255
sg23
g256
sg25
V19:00:00
p549
sg27
V2011-06-30
p550
ssVEddie Vedder
p551
(dp552
g3
(lp553
S'24551443'
p554
aS'24524557'
p555
aS'7493728'
p556
aS'24524551'
p557
aS'24551469'
p558
aS'24551444'
p559
aS'24524554'
p560
aS'24524560'
p561
aS'24524561'
p562
aS'24551448'
p563
aS'24524552'
p564
aS'23699893'
p565
aS'30718786'
p566
aS'30717943'
p567
aS'30718008'
p568
asg6
(dp569
Vcity
p570
VChicago
p571
sVname
p572
VThe Chicago Theatre
p573
sVurl
p574
Vhttp://www.bandsintown.com/venue/376682
p575
sVcountry
p576
VUnited States
p577
sVregion
p578
VIL
p579
sVlongitude
p580
F-87.627859000000001
sVlatitude
p581
F41.885190000000001
sVid
p582
I376682
ssg21
Vhttp://www.bandsintown.com/event/4259168/buy_tickets
p583
sg23
V2011-06-29T19:30:00
p584
sg25
V19:30:00
p585
sg27
V2011-06-29
p586
ssVCounting 10
p587
(dp588
g3
(lp589
sg6
(dp590
Vcity
p591
VChicago
p592
sVname
p593
VGoose Island - Wrigleyville
p594
sVurl
p595
Vhttp://www.bandsintown.com/venue/1123669
p596
sVcountry
p597
VUnited States
p598
sVregion
p599
VIL
p600
sVlongitude
p601
F-87.655708000000004
sVlatitude
p602
F41.946486
sVid
p603
I1123669
ssg21
Vhttp://www.bandsintown.com/event/4419714/buy_tickets
p604
sg23
V2011-06-30T21:00:00
p605
sg25
V21:00:00
p606
sg27
V2011-06-30
p607
ssVJoanna CO
p608
(dp609
g3
(lp610
sg6
g449
sg21
g463
sg23
g464
sg25
V20:00:00
p611
sg27
V2011-06-30
p612
ssVTHE GTW
p613
(dp614
g3
(lp615
sg6
(dp616
Vcity
p617
VChicago
p618
sVname
p619
VReggies
p620
sVurl
p621
Vhttp://www.bandsintown.com/venue/1080356
p622
sVcountry
p623
VUnited States
p624
sVregion
p625
VIL
p626
sVlongitude
p627
F-87.650000000000006
sVlatitude
p628
F41.850000000000001
sVid
p629
I1080356
ssg21
Vhttp://www.bandsintown.com/event/4400152/buy_tickets
p630
sg23
V2011-06-30T19:30:00
p631
sg25
V19:30:00
p632
sg27
V2011-06-30
p633
ssVAdenine
p634
(dp635
g3
(lp636
sg6
g53
sg21
g67
sg23
g68
sg25
V20:00:00
p637
sg27
V2011-06-29
p638
ssVHis Imaginary Band
p639
(dp640
g3
(lp641
sg6
g7
sg21
g22
sg23
g24
sg25
V20:30:00
p642
sg27
V2011-06-30
p643
ssVDevin Miles
p644
(dp645
g3
(lp646
S'29923982'
p647
aS'29923985'
p648
aS'29924004'
p649
aS'29923991'
p650
aS'29923988'
p651
aS'29923987'
p652
aS'29923980'
p653
aS'29923979'
p654
aS'29923971'
p655
asg6
(dp656
Vcity
p657
VChicago
p658
sVname
p659
VReggies Rock Club w/ XV
p660
sVurl
p661
Vhttp://www.bandsintown.com/venue/1115374
p662
sVcountry
p663
VUnited States
p664
sVregion
p665
VIL
p666
sVlongitude
p667
F-87.626970999999998
sVlatitude
p668
F41.854104
sVid
p669
I1115374
ssg21
Vhttp://www.bandsintown.com/event/4397969/buy_tickets
p670
sg23
V2011-06-30T19:30:00
p671
sg25
V19:30:00
p672
sg27
V2011-06-30
p673
ssVKris Racer
p674
(dp675
g3
(lp676
sg6
(dp677
Vcity
p678
VChicago
p679
sVname
p680
VSubterranean
p681
sVurl
p682
Vhttp://www.bandsintown.com/venue/3572
p683
sVcountry
p684
VUnited States
p685
sVregion
p686
VIL
p687
sVlongitude
p688
F-87.677778000000004
sVlatitude
p689
F41.910259000000003
sVid
p690
I3572
ssg21
Vhttp://www.bandsintown.com/event/4388300/buy_tickets
p691
sg23
V2011-06-29T20:00:00
p692
sg25
V20:00:00
p693
sg27
V2011-06-29
p694
ssVMickey
p695
(dp696
g3
(lp697
S'29223339'
p698
asg6
(dp699
Vcity
p700
VChicago
p701
sVname
p702
VDouble Door
p703
sVurl
p704
Vhttp://www.bandsintown.com/venue/378032
p705
sVcountry
p706
VUnited States
p707
sVregion
p708
VIL
p709
sVlongitude
p710
F-87.676912000000002
sVlatitude
p711
F41.909877999999999
sVid
p712
I378032
ssg21
Vhttp://www.bandsintown.com/event/4283448/buy_tickets
p713
sg23
V2011-06-30T21:00:00
p714
sg25
V21:00:00
p715
sg27
V2011-06-30
p716
ssVScarlett O'Hara
p717
(dp718
g3
(lp719
S'28180766'
p720
aS'28180399'
p721
aS'28181067'
p722
asg6
(dp723
Vcity
p724
VChicago
p725
sVname
p726
VThe Metal East Tour - Rock Room
p727
sVurl
p728
Vhttp://www.bandsintown.com/venue/1089290
p729
sVcountry
p730
VUnited States
p731
sVregion
p732
VIL
p733
sVlongitude
p734
F-87.650000000000006
sVlatitude
p735
F41.850000000000001
sVid
p736
I1089290
ssg21
Vhttp://www.bandsintown.com/event/4331202/buy_tickets
p737
sg23
V2011-06-29T19:00:00
p738
sg25
V19:00:00
p739
sg27
V2011-06-29
p740
ssVLas Guitarras De Espana 5 Part Concert Series
p741
(dp742
g3
(lp743
sg6
g288
sg21
g302
sg23
g303
sg25
V19:30:00
p744
sg27
V2011-06-30
p745
ssVOcean Grove Band
p746
(dp747
g3
(lp748
sg6
(dp749
Vcity
p750
VChicago
p751
sVname
p752
VBeat Kitchen
p753
sVurl
p754
Vhttp://www.bandsintown.com/venue/8460
p755
sVcountry
p756
VUnited States
p757
sVregion
p758
VIL
p759
sVlongitude
p760
F-87.681054000000003
sVlatitude
p761
F41.939680000000003
sVid
p762
I8460
ssg21
Vhttp://www.bandsintown.com/event/4333609/buy_tickets
p763
sg23
V2011-06-30T18:00:00
p764
sg25
V18:00:00
p765
sg27
V2011-06-30
p766
ssVJake La Botz
p767
(dp768
g3
(lp769
S'24889429'
p770
aS'24889455'
p771
aS'24889432'
p772
aS'24889452'
p773
asg6
(dp774
Vcity
p775
VBurbank
p776
sVname
p777
VChucks Voodoo Lounge
p778
sVurl
p779
Vhttp://www.bandsintown.com/venue/901126
p780
sVcountry
p781
VUnited States
p782
sVregion
p783
VIL
p784
sVlongitude
p785
F-87.782788999999994
sVlatitude
p786
F41.748323999999997
sVid
p787
I901126
ssg21
Vhttp://www.bandsintown.com/event/4326899/buy_tickets
p788
sg23
V2011-06-29T20:00:00
p789
sg25
V20:00:00
p790
sg27
V2011-06-29
p791
ssV-Tba
p792
(dp793
g3
(lp794
sg6
g449
sg21
g463
sg23
g464
sg25
V20:00:00
p795
sg27
V2011-06-30
p796
ssVScott Long
p797
(dp798
g3
(lp799
sg6
g262
sg21
g276
sg23
g277
sg25
V20:00:00
p800
sg27
V2011-06-30
p801
ssVThe Joanna Connor Band
p802
(dp803
g3
(lp804
S'29451717'
p805
asg6
g449
sg21
g463
sg23
g464
sg25
V20:00:00
p806
sg27
V2011-06-30
p807
ssVGo Long Mule
p808
(dp809
g3
(lp810
sg6
(dp811
Vcity
p812
VChicago
p813
sVname
p814
VMartyrs'
p815
sVurl
p816
Vhttp://www.bandsintown.com/venue/687419
p817
sVcountry
p818
VUnited States
p819
sVregion
p820
VIL
p821
sVlongitude
p822
F-87.676897999999994
sVlatitude
p823
F41.951808999999997
sVid
p824
I687419
ssg21
Vhttp://www.bandsintown.com/event/4376890/buy_tickets
p825
sg23
V2011-06-29T20:00:00
p826
sg25
V20:00:00
p827
sg27
V2011-06-29
p828
ssVMerlin Wall
p829
(dp830
g3
(lp831
S'28641576'
p832
aS'28641582'
p833
asg6
g699
sg21
g713
sg23
g714
sg25
V21:00:00
p834
sg27
V2011-06-30
p835
ssVOrnery Little Darlings
p836
(dp837
g3
(lp838
S'30539026'
p839
aS'30538970'
p840
aS'30538910'
p841
aS'30538951'
p842
aS'30539014'
p843
aS'30538986'
p844
aS'30538932'
p845
asg6
(dp846
Vcity
p847
VChicago
p848
sVname
p849
VLincoln Hall
p850
sVurl
p851
Vhttp://www.bandsintown.com/venue/742725
p852
sVcountry
p853
VUnited States
p854
sVregion
p855
VIL
p856
sVlongitude
p857
F-87.649835999999993
sVlatitude
p858
F41.926032999999997
sVid
p859
I742725
ssg21
Vhttp://www.bandsintown.com/event/4392957/buy_tickets
p860
sg23
V2011-06-30T20:00:00
p861
sg25
V20:00:00
p862
sg27
V2011-06-30
p863
ssVWhite Denim
p864
(dp865
g3
(lp866
S'22977856'
p867
aS'23387326'
p868
aS'23387322'
p869
aS'23387290'
p870
aS'23387308'
p871
aS'23387314'
p872
aS'23387329'
p873
aS'23387303'
p874
aS'23387317'
p875
aS'23387297'
p876
aS'23387294'
p877
aS'23387311'
p878
aS'26264486'
p879
aS'26264481'
p880
aS'25442122'
p881
asg6
g207
sg21
g221
sg23
g222
sg25
V20:00:00
p882
sg27
V2011-06-30
p883
ssVChainsaw Dupont
p884
(dp885
g3
(lp886
sg6
(dp887
Vcity
p888
VChicago
p889
sVname
p890
VHonky Tonk BBQ
p891
sVurl
p892
Vhttp://www.bandsintown.com/venue/992959
p893
sVcountry
p894
VUnited States
p895
sVregion
p896
VIL
p897
sVlongitude
p898
F-87.656944999999993
sVlatitude
p899
F41.857807000000001
sVid
p900
I992959
ssg21
Vhttp://www.bandsintown.com/event/4248534/buy_tickets
p901
sg23
V2011-06-29T19:00:00
p902
sg25
V19:00:00
p903
sg27
V2011-06-29
p904
ssVThe Beautiful Girls
p905
(dp906
g3
(lp907
S'24951445'
p908
aS'24617251'
p909
aS'25735588'
p910
aS'231504'
p911
aS'23374839'
p912
aS'26881318'
p913
aS'25735576'
p914
aS'23316099'
p915
aS'25735572'
p916
aS'25735551'
p917
aS'25537212'
p918
aS'25735586'
p919
aS'25735582'
p920
aS'25735558'
p921
aS'25735567'
p922
asg6
g350
sg21
g364
sg23
g365
sg25
V19:30:00
p923
sg27
V2011-06-29
p924
ssVPatrick Picard
p925
(dp926
g3
(lp927
sg6
(dp928
Vcity
p929
VChicago
p930
sVname
p931
VThe Bottom Lounge
p932
sVurl
p933
Vhttp://www.bandsintown.com/venue/749844
p934
sVcountry
p935
VUnited States
p936
sVregion
p937
VIL
p938
sVlongitude
p939
F-87.650000000000006
sVlatitude
p940
F41.850000000000001
sVid
p941
I749844
ssg21
Vhttp://www.bandsintown.com/event/4419110/buy_tickets
p942
sg23
V2011-06-29T18:00:00
p943
sg25
V18:00:00
p944
sg27
V2011-06-29
p945
ssVJimmy Burns Band
p946
(dp947
g3
(lp948
sg6
g428
sg21
g442
sg23
g443
sg25
V20:00:00
p949
sg27
V2011-06-29
p950
ssVAnuhea
p951
(dp952
g3
(lp953
sg6
g350
sg21
g364
sg23
g365
sg25
V19:30:00
p954
sg27
V2011-06-29
p955
ssVMorgan Geist
p956
(dp957
g3
(lp958
S'28048095'
p959
aS'27255496'
p960
aS'20990537'
p961
aS'25676272'
p962
aS'20990538'
p963
aS'20990535'
p964
aS'23484084'
p965
aS'27618318'
p966
aS'28753197'
p967
aS'27618339'
p968
aS'27618268'
p969
aS'26633763'
p970
asg6
(dp971
Vcity
p972
VChicago
p973
sVname
p974
VBerlin
p975
sVurl
p976
Vhttp://www.bandsintown.com/venue/356388
p977
sVcountry
p978
VUnited States
p979
sVregion
p980
VIL
p981
sVlongitude
p982
F-87.653351000000001
sVlatitude
p983
F41.940016
sVid
p984
I356388
ssg21
Vhttp://www.bandsintown.com/event/4402866/buy_tickets
p985
sg23
V2011-06-29T22:00:00
p986
sg25
V22:00:00
p987
sg27
V2011-06-29
p988
ssVThe Astronomer
p989
(dp990
g3
(lp991
sg6
g79
sg21
g93
sg23
g94
sg25
V21:00:00
p992
sg27
V2011-06-30
p993
ssVHosted by Awdazcate
p994
(dp995
g3
(lp996
sg6
g139
sg21
g153
sg23
g154
sg25
V20:00:00
p997
sg27
V2011-06-30
p998
ssVTiger Army
p999
(dp1000
g3
(lp1001
S'793820'
p1002
aS'942621'
p1003
aS'793823'
p1004
aS'9095391'
p1005
aS'793816'
p1006
aS'942624'
p1007
aS'3048992'
p1008
aS'15875503'
p1009
aS'942625'
p1010
aS'10573061'
p1011
aS'942626'
p1012
aS'793818'
p1013
aS'793814'
p1014
aS'942620'
p1015
aS'9094885'
p1016
asg6
(dp1017
Vcity
p1018
VChicago
p1019
sVname
p1020
VNick13 Lincoln Hall 18+ w/Ornery Little Darlings
p1021
sVurl
p1022
Vhttp://www.bandsintown.com/venue/1107198
p1023
sVcountry
p1024
VUnited States
p1025
sVregion
p1026
VIL
p1027
sVlongitude
p1028
F-87.649835999999993
sVlatitude
p1029
F41.926032999999997
sVid
p1030
I1107198
ssg21
Vhttp://www.bandsintown.com/event/4219414/buy_tickets
p1031
sg23
V2011-06-30T19:00:00
p1032
sg25
V19:00:00
p1033
sg27
V2011-06-30
p1034
ssVJoanna Connor
p1035
(dp1036
g3
(lp1037
S'28261121'
p1038
aS'28978367'
p1039
aS'24951582'
p1040
aS'30086004'
p1041
aS'25490919'
p1042
asg6
g449
sg21
g463
sg23
g464
sg25
V20:00:00
p1043
sg27
V2011-06-30
p1044
ssVXV
p1045
(dp1046
g3
(lp1047
S'29917363'
p1048
aS'29917374'
p1049
aS'29917319'
p1050
aS'29917356'
p1051
aS'30432709'
p1052
aS'29917378'
p1053
aS'29917428'
p1054
aS'29917389'
p1055
aS'29917454'
p1056
aS'29917332'
p1057
aS'29917415'
p1058
aS'29917346'
p1059
aS'29917441'
p1060
aS'29917400'
p1061
aS'23243126'
p1062
asg6
(dp1063
Vcity
p1064
VChicago
p1065
sVname
p1066
VReggies Rockhouse
p1067
sVurl
p1068
Vhttp://www.bandsintown.com/venue/844802
p1069
sVcountry
p1070
VUnited States
p1071
sVregion
p1072
VIL
p1073
sVlongitude
p1074
F-87.650000000000006
sVlatitude
p1075
F41.850000000000001
sVid
p1076
I844802
ssg21
Vhttp://www.bandsintown.com/event/4380031/buy_tickets
p1077
sg23
V2011-06-30T19:00:00
p1078
sg25
V19:00:00
p1079
sg27
V2011-06-30
p1080
ssVDJ Tony Correale
p1081
(dp1082
g3
(lp1083
sg6
g181
sg21
g195
sg23
g196
sg25
V21:30:00
p1084
sg27
V2011-06-29
p1085
ssVThe Conan Writers Show
p1086
(dp1087
g3
(lp1088
sg6
g262
sg21
g276
sg23
g277
sg25
V20:00:00
p1089
sg27
V2011-06-30
p1090
ssVthe Sometimes Family
p1091
(dp1092
g3
(lp1093
sg6
g699
sg21
g713
sg23
g714
sg25
V21:00:00
p1094
sg27
V2011-06-30
p1095
ssVMaurice Vaughn Blues Band
p1096
(dp1097
g3
(lp1098
sg6
g428
sg21
g442
sg23
g443
sg25
V20:00:00
p1099
sg27
V2011-06-29
p1100
ssVLeaf Bird
p1101
(dp1102
g3
(lp1103
sg6
g32
sg21
g46
sg23
g47
sg25
V20:00:00
p1104
sg27
V2011-06-29
p1105
ssVA Night of First Time Duos
p1106
(dp1107
g3
(lp1108
sg6
g181
sg21
g195
sg23
g196
sg25
V21:30:00
p1109
sg27
V2011-06-29
p1110
ssVVia Verso
p1111
(dp1112
g3
(lp1113
sg6
g7
sg21
g22
sg23
g24
sg25
V20:30:00
p1114
sg27
V2011-06-30
p1115
ssVMat McHugh
p1116
(dp1117
g3
(lp1118
S'23323826'
p1119
aS'23323810'
p1120
aS'23323844'
p1121
aS'23323819'
p1122
aS'23323859'
p1123
aS'23323854'
p1124
aS'23323817'
p1125
aS'23323837'
p1126
aS'23323829'
p1127
aS'23323848'
p1128
aS'23323814'
p1129
aS'29507526'
p1130
aS'29507511'
p1131
aS'29507520'
p1132
asg6
g350
sg21
g364
sg23
g365
sg25
V19:30:00
p1133
sg27
V2011-06-29
p1134
ssVPezzettino
p1135
(dp1136
g3
(lp1137
S'27815800'
p1138
asg6
g32
sg21
g46
sg23
g47
sg25
V20:00:00
p1139
sg27
V2011-06-29
p1140
ssVthe Ragtones
p1141
(dp1142
g3
(lp1143
sg6
g699
sg21
g713
sg23
g714
sg25
V21:00:00
p1144
sg27
V2011-06-30
p1145
ssVFrontiers
p1146
(dp1147
g3
(lp1148
sg6
(dp1149
Vcity
p1150
VChicago
p1151
sVname
p1152
VHouse of Blues Chicago
p1153
sVurl
p1154
Vhttp://www.bandsintown.com/venue/689477
p1155
sVcountry
p1156
VUnited States
p1157
sVregion
p1158
VIL
p1159
sVlongitude
p1160
F-87.650000000000006
sVlatitude
p1161
F41.850000000000001
sVid
p1162
I689477
ssg21
Vhttp://www.bandsintown.com/event/4362910/buy_tickets
p1163
sg23
V2011-06-30T19:30:00
p1164
sg25
V19:30:00
p1165
sg27
V2011-06-30
p1166
ssVThe Streets On Fire
p1167
(dp1168
g3
(lp1169
S'29397402'
p1170
asg6
g699
sg21
g713
sg23
g714
sg25
V21:00:00
p1171
sg27
V2011-06-30
p1172
ssVMoritat
p1173
(dp1174
g3
(lp1175
sg6
g32
sg21
g46
sg23
g47
sg25
V20:00:00
p1176
sg27
V2011-06-29
p1177
ssVSouth Jordan
p1178
(dp1179
g3
(lp1180
S'30601999'
p1181
aS'27332790'
p1182
aS'26838534'
p1183
aS'27168682'
p1184
asg6
(dp1185
Vcity
p1186
VChicago
p1187
sVname
p1188
VThe Beat Kitchen
p1189
sVurl
p1190
Vhttp://www.bandsintown.com/venue/796725
p1191
sVcountry
p1192
VUnited States
p1193
sVregion
p1194
VIL
p1195
sVlongitude
p1196
F-87.681054000000003
sVlatitude
p1197
F41.939680000000003
sVid
p1198
I796725
ssg21
Vhttp://www.bandsintown.com/event/4364793/buy_tickets
p1199
sg23
V2011-06-30T18:30:00
p1200
sg25
V18:30:00
p1201
sg27
V2011-06-30
p1202
ssVBeng Fang
p1203
(dp1204
g3
(lp1205
sg6
g139
sg21
g153
sg23
g154
sg25
V20:00:00
p1206
sg27
V2011-06-30
p1207
ssVThe Field Auxiliary
p1208
(dp1209
g3
(lp1210
sg6
g79
sg21
g93
sg23
g94
sg25
V21:00:00
p1211
sg27
V2011-06-30
p1212
ssVHe Is We
p1213
(dp1214
g3
(lp1215
S'26560910'
p1216
aS'24511045'
p1217
aS'29782802'
p1218
aS'26675253'
p1219
asg6
g749
sg21
g763
sg23
g764
sg25
V18:00:00
p1220
sg27
V2011-06-30
p1221
ssVDaylight Dawns
p1222
(dp1223
g3
(lp1224
sg6
g53
sg21
g67
sg23
g68
sg25
V20:00:00
p1225
sg27
V2011-06-29
p1226
ssVThe Strange Boys
p1227
(dp1228
g3
(lp1229
S'24528720'
p1230
aS'24528709'
p1231
aS'28472081'
p1232
aS'28472087'
p1233
aS'28472121'
p1234
aS'28472555'
p1235
aS'24528688'
p1236
aS'26160158'
p1237
aS'28472017'
p1238
aS'24528699'
p1239
aS'28472041'
p1240
aS'25293994'
p1241
aS'28472377'
p1242
aS'30208209'
p1243
aS'25293776'
p1244
asg6
(dp1245
Vcity
p1246
VChicago
p1247
sVname
p1248
VEmpty Bottle
p1249
sVurl
p1250
Vhttp://www.bandsintown.com/venue/13481
p1251
sVcountry
p1252
VUnited States
p1253
sVregion
p1254
VIL
p1255
sVlongitude
p1256
F-87.686778000000004
sVlatitude
p1257
F41.900436999999997
sVid
p1258
I13481
ssg21
Vhttp://www.bandsintown.com/event/4327907/buy_tickets
p1259
sg23
V2011-06-30T20:00:00
p1260
sg25
V20:00:00
p1261
sg27
V2011-06-30
p1262
ssVJugrnaut
p1263
(dp1264
g3
(lp1265
sg6
g139
sg21
g153
sg23
g154
sg25
V20:00:00
p1266
sg27
V2011-06-30
p1267
ssVSeel Fresh
p1268
(dp1269
g3
(lp1270
S'30624356'
p1271
aS'30624349'
p1272
aS'30496349'
p1273
aS'30624804'
p1274
aS'30624800'
p1275
aS'30624797'
p1276
aS'30624792'
p1277
aS'30624787'
p1278
aS'30624781'
p1279
aS'30624776'
p1280
aS'30624769'
p1281
aS'30624763'
p1282
aS'30624761'
p1283
aS'30624755'
p1284
aS'30624751'
p1285
asg6
g139
sg21
g153
sg23
g154
sg25
V20:00:00
p1286
sg27
V2011-06-30
p1287
ssVWe Are Defiance
p1288
(dp1289
g3
(lp1290
S'29710517'
p1291
aS'29680171'
p1292
aS'29680247'
p1293
aS'29679667'
p1294
aS'29710504'
p1295
aS'29627252'
p1296
aS'29680036'
p1297
aS'29627249'
p1298
aS'29710495'
p1299
aS'29680112'
p1300
aS'29627256'
p1301
aS'29679744'
p1302
aS'29679550'
p1303
aS'29627254'
p1304
aS'29710492'
p1305
asg6
(dp1306
Vcity
p1307
VChicago
p1308
sVname
p1309
VRock Room w/ Scarlett O'Hara, Casino Madrid, and Wolves Among Men
p1310
sVurl
p1311
Vhttp://www.bandsintown.com/venue/1089184
p1312
sVcountry
p1313
VUnited States
p1314
sVregion
p1315
VIL
p1316
sVlongitude
p1317
F-87.650000000000006
sVlatitude
p1318
F41.850000000000001
sVid
p1319
I1089184
ssg21
Vhttp://www.bandsintown.com/event/4331044/buy_tickets
p1320
sg23
V2011-06-29T19:00:00
p1321
sg25
V19:00:00
p1322
sg27
V2011-06-29
p1323
ssVNick 13
p1324
(dp1325
g3
(lp1326
S'31078374'
p1327
aS'31078369'
p1328
aS'31078365'
p1329
aS'31078361'
p1330
aS'31078354'
p1331
aS'31078351'
p1332
aS'31078347'
p1333
aS'31078340'
p1334
aS'31078339'
p1335
aS'31078334'
p1336
asg6
(dp1337
Vcity
p1338
VChicago
p1339
sVname
p1340
VLincoln Hall - 18+ w/ Ornery Little Darlings
p1341
sVurl
p1342
Vhttp://www.bandsintown.com/venue/1107191
p1343
sVcountry
p1344
VUnited States
p1345
sVregion
p1346
VIL
p1347
sVlongitude
p1348
F-87.650000000000006
sVlatitude
p1349
F41.850000000000001
sVid
p1350
I1107191
ssg21
Vhttp://www.bandsintown.com/event/4214958/buy_tickets
p1351
sg23
V2011-06-30T19:00:00
p1352
sg25
V19:00:00
p1353
sg27
V2011-06-30
p1354
ssVAfricoleur
p1355
(dp1356
g3
(lp1357
sg6
g53
sg21
g67
sg23
g68
sg25
V20:00:00
p1358
sg27
V2011-06-29
p1359
ssVThe Wild Onion People
p1360
(dp1361
g3
(lp1362
sg6
g53
sg21
g67
sg23
g68
sg25
V20:00:00
p1363
sg27
V2011-06-29
p1364
ss.