(dp0
VChris Greene Quartet
p1
(dp2
S'date'
p3
V2011-06-28
p4
sS'songID'
p5
(lp6
sS'time'
p7
V17:00:00
p8
sS'venue'
p9
(dp10
Vcity
p11
VChicago
p12
sVname
p13
VAndy's Jazz Club
p14
sVurl
p15
Vhttp://www.bandsintown.com/venue/292296
p16
sVcountry
p17
VUnited States
p18
sVregion
p19
VIL
p20
sVlongitude
p21
F-87.627645000000001
sVlatitude
p22
F41.889941
sVid
p23
I292296
ssS'datetime'
p24
V2011-06-28T17:00:00
p25
ssVCasino Madrid
p26
(dp27
g3
V2011-06-29
p28
sg5
(lp29
S'26550496'
p30
aS'24862639'
p31
aS'26550510'
p32
aS'26550492'
p33
aS'26550504'
p34
aS'26550500'
p35
aS'24862926'
p36
aS'27580054'
p37
asg7
V19:00:00
p38
sg9
(dp39
Vcity
p40
VChicago
p41
sVname
p42
VRock Room at Penny Lane Pub w/ Scarlett O'hara, We Are Defiance
p43
sVurl
p44
Vhttp://www.bandsintown.com/venue/1119453
p45
sVcountry
p46
VUnited States
p47
sVregion
p48
VIL
p49
sVlongitude
p50
F-87.650000000000006
sVlatitude
p51
F41.850000000000001
sVid
p52
I1119453
ssg24
V2011-06-29T19:00:00
p53
ssVCross Examination
p54
(dp55
g3
V2011-06-28
p56
sg5
(lp57
sg7
V19:00:00
p58
sg9
(dp59
Vcity
p60
VChicago
p61
sVname
p62
VReggies Rock Club
p63
sVurl
p64
Vhttp://www.bandsintown.com/venue/1058601
p65
sVcountry
p66
VUnited States
p67
sVregion
p68
VIL
p69
sVlongitude
p70
F-87.626936000000001
sVlatitude
p71
F41.854062999999996
sVid
p72
I1058601
ssg24
V2011-06-28T19:00:00
p73
ssVArcheology
p74
(dp75
g3
V2011-06-29
p76
sg5
(lp77
sg7
V20:00:00
p78
sg9
(dp79
Vcity
p80
VChicago
p81
sVname
p82
VDouble Door
p83
sVurl
p84
Vhttp://www.bandsintown.com/venue/378032
p85
sVcountry
p86
VUnited States
p87
sVregion
p88
VIL
p89
sVlongitude
p90
F-87.676912000000002
sVlatitude
p91
F41.909877999999999
sVid
p92
I378032
ssg24
V2011-06-29T20:00:00
p93
ssVUndadog Records
p94
(dp95
g3
V2011-06-29
p96
sg5
(lp97
sg7
V20:00:00
p98
sg9
(dp99
Vcity
p100
VChicago
p101
sVname
p102
VReggies Rock Club
p103
sVurl
p104
Vhttp://www.bandsintown.com/venue/1058601
p105
sVcountry
p106
VUnited States
p107
sVregion
p108
VIL
p109
sVlongitude
p110
F-87.626936000000001
sVlatitude
p111
F41.854062999999996
sVid
p112
I1058601
ssg24
V2011-06-29T20:00:00
p113
ssVI.Devise
p114
(dp115
g3
V2011-06-29
p116
sg5
(lp117
sg7
V20:00:00
p118
sg9
g99
sg24
g113
ssVCounterpunch
p119
(dp120
g3
V2011-06-28
p121
sg5
(lp122
S'27287934'
p123
aS'27287915'
p124
aS'27287646'
p125
aS'27287670'
p126
aS'27287607'
p127
aS'27287887'
p128
aS'27287751'
p129
aS'27287726'
p130
aS'27287695'
p131
aS'27287864'
p132
aS'27287841'
p133
aS'27287805'
p134
aS'27287773'
p135
asg7
V19:00:00
p136
sg9
(dp137
Vcity
p138
VChicago
p139
sVname
p140
VFireside Bowl
p141
sVurl
p142
Vhttp://www.bandsintown.com/venue/924758
p143
sVcountry
p144
VUnited States
p145
sVregion
p146
VIL
p147
sVlongitude
p148
F-87.694137999999995
sVlatitude
p149
F41.924981000000002
sVid
p150
I924758
ssg24
V2011-06-28T19:00:00
p151
ssVJungle Rot
p152
(dp153
g3
V2011-06-28
p154
sg5
(lp155
S'23071856'
p156
aS'25604944'
p157
aS'25604774'
p158
aS'16343595'
p159
aS'25604839'
p160
asg7
V19:00:00
p161
sg9
g59
sg24
g73
ssVGo Long Mule
p162
(dp163
g3
V2011-06-29
p164
sg5
(lp165
sg7
V20:00:00
p166
sg9
(dp167
Vcity
p168
VChicago
p169
sVname
p170
VMartyrs'
p171
sVurl
p172
Vhttp://www.bandsintown.com/venue/687419
p173
sVcountry
p174
VUnited States
p175
sVregion
p176
VIL
p177
sVlongitude
p178
F-87.676897999999994
sVlatitude
p179
F41.951808999999997
sVid
p180
I687419
ssg24
V2011-06-29T20:00:00
p181
ssVPezzettino
p182
(dp183
g3
V2011-06-29
p184
sg5
(lp185
sg7
V20:00:00
p186
sg9
g79
sg24
g93
ssVChainsaw Dupont
p187
(dp188
g3
V2011-06-29
p189
sg5
(lp190
sg7
V19:00:00
p191
sg9
(dp192
Vcity
p193
VChicago
p194
sVname
p195
VHonky Tonk BBQ
p196
sVurl
p197
Vhttp://www.bandsintown.com/venue/992959
p198
sVcountry
p199
VUnited States
p200
sVregion
p201
VIL
p202
sVlongitude
p203
F-87.656944999999993
sVlatitude
p204
F41.857807000000001
sVid
p205
I992959
ssg24
V2011-06-29T19:00:00
p206
ssVThe Wild Onion People
p207
(dp208
g3
V2011-06-29
p209
sg5
(lp210
sg7
V20:00:00
p211
sg9
g99
sg24
g113
ssVMike Wheeler
p212
(dp213
g3
V2011-06-28
p214
sg5
(lp215
sg7
V20:00:00
p216
sg9
(dp217
Vcity
p218
VChicago
p219
sVname
p220
VKingston Mines
p221
sVurl
p222
Vhttp://www.bandsintown.com/venue/31972
p223
sVcountry
p224
VUnited States
p225
sVregion
p226
VIL
p227
sVlongitude
p228
F-87.649045999999998
sVlatitude
p229
F41.928452999999998
sVid
p230
I31972
ssg24
V2011-06-28T20:00:00
p231
ssVThe Beautiful Girls
p232
(dp233
g3
V2011-06-29
p234
sg5
(lp235
S'25537212'
p236
aS'25735586'
p237
aS'25735582'
p238
aS'25735558'
p239
aS'25735567'
p240
asg7
V19:30:00
p241
sg9
(dp242
Vcity
p243
VChicago
p244
sVname
p245
VSchubas Tavern
p246
sVurl
p247
Vhttp://www.bandsintown.com/venue/11098
p248
sVcountry
p249
VUnited States
p250
sVregion
p251
VIL
p252
sVlongitude
p253
F-87.663651000000002
sVlatitude
p254
F41.939656999999997
sVid
p255
I11098
ssg24
V2011-06-29T19:30:00
p256
ssVMoritat
p257
(dp258
g3
V2011-06-29
p259
sg5
(lp260
sg7
V20:00:00
p261
sg9
g79
sg24
g93
ssVThe Troublemakers
p262
(dp263
g3
V2011-06-28
p264
sg5
(lp265
S'25920796'
p266
aS'17607113'
p267
aS'28256522'
p268
aS'27187082'
p269
asg7
V20:00:00
p270
sg9
g217
sg24
g231
ssVPatrick Picard
p271
(dp272
g3
V2011-06-29
p273
sg5
(lp274
sg7
V18:00:00
p275
sg9
(dp276
Vcity
p277
VChicago
p278
sVname
p279
VThe Bottom Lounge
p280
sVurl
p281
Vhttp://www.bandsintown.com/venue/749844
p282
sVcountry
p283
VUnited States
p284
sVregion
p285
VIL
p286
sVlongitude
p287
F-87.650000000000006
sVlatitude
p288
F41.850000000000001
sVid
p289
I749844
ssg24
V2011-06-29T18:00:00
p290
ssVAdenine
p291
(dp292
g3
V2011-06-29
p293
sg5
(lp294
sg7
V20:00:00
p295
sg9
g99
sg24
g113
ssV2011 Essence Music Festival
p296
(dp297
g3
V2011-06-29
p298
sg5
(lp299
sg7
V20:00:00
p300
sg9
(dp301
Vcity
p302
VChicago
p303
sVname
p304
VJackson Family Tours
p305
sVurl
p306
Vhttp://www.bandsintown.com/venue/1055562
p307
sVcountry
p308
VUnited States
p309
sVregion
p310
VIL
p311
sVlongitude
p312
F-87.667787000000004
sVlatitude
p313
F41.764291999999998
sVid
p314
I1055562
ssg24
V2011-06-29T20:00:00
p315
ssVEddie Vedder
p316
(dp317
g3
V2011-06-29
p318
sg5
(lp319
S'24551443'
p320
aS'24524557'
p321
aS'7493728'
p322
aS'24524551'
p323
aS'24551469'
p324
aS'24551444'
p325
aS'24524554'
p326
aS'24524560'
p327
aS'24524561'
p328
aS'24551448'
p329
aS'24524552'
p330
aS'23699893'
p331
aS'30718786'
p332
aS'30717943'
p333
aS'30718008'
p334
asg7
V19:30:00
p335
sg9
(dp336
Vcity
p337
VChicago
p338
sVname
p339
VThe Chicago Theatre
p340
sVurl
p341
Vhttp://www.bandsintown.com/venue/376682
p342
sVcountry
p343
VUnited States
p344
sVregion
p345
VIL
p346
sVlongitude
p347
F-87.627859000000001
sVlatitude
p348
F41.885190000000001
sVid
p349
I376682
ssg24
V2011-06-29T19:30:00
p350
ssVThe Lips
p351
(dp352
g3
V2011-06-28
p353
sg5
(lp354
sg7
V22:00:00
p355
sg9
(dp356
Vcity
p357
VChicago
p358
sVname
p359
VThe Elbo Room
p360
sVurl
p361
Vhttp://www.bandsintown.com/venue/1060811
p362
sVcountry
p363
VUnited States
p364
sVregion
p365
VIL
p366
sVlongitude
p367
F-87.660388999999995
sVlatitude
p368
F41.933934999999998
sVid
p369
I1060811
ssg24
V2011-06-28T22:00:00
p370
ssVSet III
p371
(dp372
g3
V2011-06-29
p373
sg5
(lp374
sg7
V21:30:00
p375
sg9
(dp376
Vcity
p377
VChicago
p378
sVname
p379
VThe Hideout
p380
sVurl
p381
Vhttp://www.bandsintown.com/venue/1085526
p382
sVcountry
p383
VUnited States
p384
sVregion
p385
VIL
p386
sVlongitude
p387
F-87.662273999999996
sVlatitude
p388
F41.913871999999998
sVid
p389
I1085526
ssg24
V2011-06-29T21:30:00
p390
ssVJimmy Burns Band
p391
(dp392
g3
V2011-06-29
p393
sg5
(lp394
sg7
V20:00:00
p395
sg9
(dp396
Vcity
p397
VChicago
p398
sVname
p399
VKingston Mines
p400
sVurl
p401
Vhttp://www.bandsintown.com/venue/31972
p402
sVcountry
p403
VUnited States
p404
sVregion
p405
VIL
p406
sVlongitude
p407
F-87.649045999999998
sVlatitude
p408
F41.928452999999998
sVid
p409
I31972
ssg24
V2011-06-29T20:00:00
p410
ssVAnuhea
p411
(dp412
g3
V2011-06-29
p413
sg5
(lp414
S'25765208'
p415
aS'23481041'
p416
aS'23481218'
p417
aS'24221656'
p418
aS'23481162'
p419
aS'24221647'
p420
aS'24221658'
p421
aS'24221637'
p422
aS'24221633'
p423
aS'29766000'
p424
aS'24221642'
p425
aS'24221636'
p426
aS'24221651'
p427
aS'23427695'
p428
aS'27758304'
p429
asg7
V19:30:00
p430
sg9
g242
sg24
g256
ssVFarewell Drifters
p431
(dp432
g3
V2011-06-28
p433
sg5
(lp434
S'27474922'
p435
aS'27002391'
p436
aS'29098127'
p437
aS'27474955'
p438
aS'27474941'
p439
aS'27474935'
p440
aS'27474950'
p441
aS'27002404'
p442
aS'27474954'
p443
aS'27474924'
p444
aS'27474943'
p445
aS'27002432'
p446
aS'27474920'
p447
aS'25807845'
p448
aS'27474934'
p449
asg7
V20:00:00
p450
sg9
(dp451
Vcity
p452
VChicago
p453
sVname
p454
VUncommon Ground
p455
sVurl
p456
Vhttp://www.bandsintown.com/venue/37086
p457
sVcountry
p458
VUnited States
p459
sVregion
p460
VIL
p461
sVlongitude
p462
F-87.665634999999995
sVlatitude
p463
F41.998036999999997
sVid
p464
I37086
ssg24
V2011-06-28T20:00:00
p465
ssVFort Frances
p466
(dp467
g3
V2011-06-28
p468
sg5
(lp469
sg7
V20:00:00
p470
sg9
(dp471
Vcity
p472
VChicago
p473
sVname
p474
VSchubas
p475
sVurl
p476
Vhttp://www.bandsintown.com/venue/704313
p477
sVcountry
p478
VUnited States
p479
sVregion
p480
VIL
p481
sVlongitude
p482
F-87.663534999999996
sVlatitude
p483
F41.939217999999997
sVid
p484
I704313
ssg24
V2011-06-28T20:00:00
p485
ssVMorgan Geist
p486
(dp487
g3
V2011-06-29
p488
sg5
(lp489
S'28048095'
p490
aS'27255496'
p491
aS'20990537'
p492
aS'25676272'
p493
aS'20990538'
p494
aS'20990535'
p495
aS'23484084'
p496
aS'27618318'
p497
aS'28753197'
p498
aS'27618339'
p499
aS'27618268'
p500
aS'26633763'
p501
asg7
V22:00:00
p502
sg9
(dp503
Vcity
p504
VChicago
p505
sVname
p506
VBerlin
p507
sVurl
p508
Vhttp://www.bandsintown.com/venue/356388
p509
sVcountry
p510
VUnited States
p511
sVregion
p512
VIL
p513
sVlongitude
p514
F-87.653351000000001
sVlatitude
p515
F41.940016
sVid
p516
I356388
ssg24
V2011-06-29T22:00:00
p517
ssVJimmy Burns Blues Band
p518
(dp519
g3
V2011-06-29
p520
sg5
(lp521
sg7
V20:00:00
p522
sg9
g396
sg24
g410
ssVMishka
p523
(dp524
g3
V2011-06-29
p525
sg5
(lp526
S'22485598'
p527
aS'22485590'
p528
aS'22485596'
p529
aS'22485589'
p530
aS'22485597'
p531
aS'22485595'
p532
aS'22485593'
p533
aS'22485591'
p534
aS'25981810'
p535
aS'22485599'
p536
aS'25981824'
p537
aS'26892388'
p538
aS'23225740'
p539
aS'23749815'
p540
aS'25281028'
p541
asg7
V19:30:00
p542
sg9
g242
sg24
g256
ssVChamberlin
p543
(dp544
g3
V2011-06-28
p545
sg5
(lp546
S'29266125'
p547
aS'29266233'
p548
aS'29266218'
p549
aS'29266194'
p550
aS'29266164'
p551
aS'29266172'
p552
aS'29266110'
p553
aS'29266087'
p554
aS'29266141'
p555
asg7
V20:00:00
p556
sg9
(dp557
Vcity
p558
VChicago
p559
sVname
p560
VSchubas Tavern
p561
sVurl
p562
Vhttp://www.bandsintown.com/venue/11098
p563
sVcountry
p564
VUnited States
p565
sVregion
p566
VIL
p567
sVlongitude
p568
F-87.663651000000002
sVlatitude
p569
F41.939656999999997
sVid
p570
I11098
ssg24
V2011-06-28T20:00:00
p571
ssVKris Racer
p572
(dp573
g3
V2011-06-29
p574
sg5
(lp575
sg7
V20:00:00
p576
sg9
(dp577
Vcity
p578
VChicago
p579
sVname
p580
VSubterranean
p581
sVurl
p582
Vhttp://www.bandsintown.com/venue/3572
p583
sVcountry
p584
VUnited States
p585
sVregion
p586
VIL
p587
sVlongitude
p588
F-87.677778000000004
sVlatitude
p589
F41.910259000000003
sVid
p590
I3572
ssg24
V2011-06-29T20:00:00
p591
ssVDaylight Dawns
p592
(dp593
g3
V2011-06-29
p594
sg5
(lp595
sg7
V20:00:00
p596
sg9
g99
sg24
g113
ssVLas Guitarras De Espana
p597
(dp598
g3
V2011-06-29
p599
sg5
(lp600
sg7
V19:30:00
p601
sg9
(dp602
Vcity
p603
VChicago
p604
sVname
p605
VMayne Stage
p606
sVurl
p607
Vhttp://www.bandsintown.com/venue/906764
p608
sVcountry
p609
VUnited States
p610
sVregion
p611
VIL
p612
sVlongitude
p613
F-87.664804000000004
sVlatitude
p614
F42.008069999999996
sVid
p615
I906764
ssg24
V2011-06-29T19:30:00
p616
ssVCojack
p617
(dp618
g3
V2011-06-29
p619
sg5
(lp620
sg7
V20:00:00
p621
sg9
g99
sg24
g113
ssVThe Personnel
p622
(dp623
g3
V2011-06-29
p624
sg5
(lp625
sg7
V21:00:00
p626
sg9
(dp627
Vcity
p628
VChicago
p629
sVname
p630
VOld Town Social
p631
sVurl
p632
Vhttp://www.bandsintown.com/venue/793594
p633
sVcountry
p634
VUnited States
p635
sVregion
p636
VIL
p637
sVlongitude
p638
F-87.632043999999993
sVlatitude
p639
F41.911169999999998
sVid
p640
I793594
ssg24
V2011-06-29T21:00:00
p641
ssVJessica Lea Mayfield
p642
(dp643
g3
V2011-06-28
p644
sg5
(lp645
S'28755914'
p646
aS'22956840'
p647
aS'29743243'
p648
aS'22955705'
p649
aS'29743253'
p650
aS'22955958'
p651
aS'22955849'
p652
aS'22956753'
p653
aS'29659170'
p654
aS'22956077'
p655
aS'22956518'
p656
aS'23098108'
p657
aS'29659215'
p658
aS'29659202'
p659
asg7
V12:00:00
p660
sg9
(dp661
Vcity
p662
VChicago
p663
sVname
p664
VTaste of Chicago
p665
sVurl
p666
Vhttp://www.bandsintown.com/venue/129298
p667
sVcountry
p668
VUnited States
p669
sVregion
p670
VIL
p671
sVlongitude
p672
F-87.628658999999999
sVlatitude
p673
F41.883225000000003
sVid
p674
I129298
ssg24
V2011-06-28T12:00:00
p675
ssVWe Are Defiance
p676
(dp677
g3
V2011-06-29
p678
sg5
(lp679
S'29710517'
p680
aS'29680171'
p681
aS'29680247'
p682
aS'29679667'
p683
aS'29710504'
p684
aS'29627252'
p685
aS'29680036'
p686
aS'29627249'
p687
aS'29710495'
p688
aS'29680112'
p689
aS'29627256'
p690
aS'29679744'
p691
aS'29679550'
p692
aS'29627254'
p693
aS'29710492'
p694
asg7
V19:00:00
p695
sg9
(dp696
Vcity
p697
VChicago
p698
sVname
p699
VRock Room w/ Scarlett O'Hara, Casino Madrid, and Wolves Among Men
p700
sVurl
p701
Vhttp://www.bandsintown.com/venue/1089184
p702
sVcountry
p703
VUnited States
p704
sVregion
p705
VIL
p706
sVlongitude
p707
F-87.650000000000006
sVlatitude
p708
F41.850000000000001
sVid
p709
I1089184
ssg24
V2011-06-29T19:00:00
p710
ssVDJ Tony Correale
p711
(dp712
g3
V2011-06-29
p713
sg5
(lp714
sg7
V21:30:00
p715
sg9
g376
sg24
g390
ssVThe Damn Choir
p716
(dp717
g3
V2011-06-28
p718
sg5
(lp719
S'24877708'
p720
asg7
V20:00:00
p721
sg9
g451
sg24
g465
ssVMike Wheeler Blues Band
p722
(dp723
g3
V2011-06-28
p724
sg5
(lp725
sg7
V20:00:00
p726
sg9
g217
sg24
g231
ssVSacred Reich
p727
(dp728
g3
V2011-06-28
p729
sg5
(lp730
S'1404577'
p731
aS'2699491'
p732
aS'2699492'
p733
aS'14990727'
p734
aS'23169835'
p735
aS'10304745'
p736
aS'14390713'
p737
aS'14990728'
p738
aS'2699477'
p739
aS'2699485'
p740
asg7
V19:00:00
p741
sg9
g59
sg24
g73
ssVMaurice Vaughn Blues Band
p742
(dp743
g3
V2011-06-29
p744
sg5
(lp745
sg7
V20:00:00
p746
sg9
g396
sg24
g410
ssVLas Guitarras De Espana 5 Part Concert Series
p747
(dp748
g3
V2011-06-29
p749
sg5
(lp750
sg7
V19:30:00
p751
sg9
g602
sg24
g616
ssVLeaf Bird
p752
(dp753
g3
V2011-06-29
p754
sg5
(lp755
sg7
V20:00:00
p756
sg9
g79
sg24
g93
ssVBarehand Jugband
p757
(dp758
g3
V2011-06-28
p759
sg5
(lp760
S'23032413'
p761
aS'23029226'
p762
aS'23027069'
p763
aS'23025222'
p764
aS'23034432'
p765
aS'23034303'
p766
aS'23030844'
p767
aS'23029908'
p768
aS'23029716'
p769
aS'23026731'
p770
asg7
V21:00:00
p771
sg9
(dp772
Vcity
p773
VChicago
p774
sVname
p775
VThe Hideout
p776
sVurl
p777
Vhttp://www.bandsintown.com/venue/1085526
p778
sVcountry
p779
VUnited States
p780
sVregion
p781
VIL
p782
sVlongitude
p783
F-87.662273999999996
sVlatitude
p784
F41.913871999999998
sVid
p785
I1085526
ssg24
V2011-06-28T21:00:00
p786
ssVJake La Botz
p787
(dp788
g3
V2011-06-29
p789
sg5
(lp790
S'24889441'
p791
aS'24889418'
p792
aS'24889413'
p793
aS'24889444'
p794
aS'24889421'
p795
aS'24889439'
p796
aS'24889426'
p797
aS'24889456'
p798
aS'24889448'
p799
aS'24889436'
p800
aS'24889429'
p801
aS'24889455'
p802
aS'24889432'
p803
aS'24889452'
p804
asg7
V20:00:00
p805
sg9
(dp806
Vcity
p807
VBurbank
p808
sVname
p809
VChucks Voodoo Lounge
p810
sVurl
p811
Vhttp://www.bandsintown.com/venue/901126
p812
sVcountry
p813
VUnited States
p814
sVregion
p815
VIL
p816
sVlongitude
p817
F-87.782788999999994
sVlatitude
p818
F41.748323999999997
sVid
p819
I901126
ssg24
V2011-06-29T20:00:00
p820
ssVBlue Ribbon Glee Club
p821
(dp822
g3
V2011-06-28
p823
sg5
(lp824
S'26367961'
p825
aS'26367965'
p826
aS'26367962'
p827
aS'5346089'
p828
aS'5346090'
p829
aS'5346091'
p830
asg7
V19:00:00
p831
sg9
(dp832
Vcity
p833
VChicago
p834
sVname
p835
VDouble Door
p836
sVurl
p837
Vhttp://www.bandsintown.com/venue/378032
p838
sVcountry
p839
VUnited States
p840
sVregion
p841
VIL
p842
sVlongitude
p843
F-87.676912000000002
sVlatitude
p844
F41.909877999999999
sVid
p845
I378032
ssg24
V2011-06-28T19:00:00
p846
ssVAfricoleur
p847
(dp848
g3
V2011-06-29
p849
sg5
(lp850
sg7
V20:00:00
p851
sg9
g99
sg24
g113
ssVScarlett O'Hara
p852
(dp853
g3
V2011-06-29
p854
sg5
(lp855
sg7
V19:00:00
p856
sg9
(dp857
Vcity
p858
VChicago
p859
sVname
p860
VThe Metal East Tour - Rock Room
p861
sVurl
p862
Vhttp://www.bandsintown.com/venue/1089290
p863
sVcountry
p864
VUnited States
p865
sVregion
p866
VIL
p867
sVlongitude
p868
F-87.650000000000006
sVlatitude
p869
F41.850000000000001
sVid
p870
I1089290
ssg24
V2011-06-29T19:00:00
p871
ssVA Night of First Time Duos
p872
(dp873
g3
V2011-06-29
p874
sg5
(lp875
sg7
V21:30:00
p876
sg9
g376
sg24
g390
ssVMat McHugh
p877
(dp878
g3
V2011-06-29
p879
sg5
(lp880
sg7
V19:30:00
p881
sg9
g242
sg24
g256
ssVEric Guitar Davis
p882
(dp883
g3
V2011-06-28
p884
sg5
(lp885
sg7
V20:00:00
p886
sg9
g217
sg24
g231
ss.